target datalayout = "e-m:e-p270:32:32-p271:32:32-p272:64:64-i64:64-i128:128-f80:128-n8:16:32:64-S128"
target triple = "x86_64-pc-linux-gnu"

; Function Attrs: nounwind uwtable
define internal void @lpc_compute_autocorr_c(ptr noundef %0, i64 noundef %1, i32 noundef %2, ptr noundef %3) #0 {
  %5 = alloca ptr, align 8
  %6 = alloca i64, align 8
  %7 = alloca i32, align 4
  %8 = alloca ptr, align 8
  %9 = alloca i32, align 4
  %10 = alloca i32, align 4
  %11 = alloca double, align 8
  %12 = alloca double, align 8
  %13 = alloca double, align 8
  store ptr %0, ptr %5, align 8, !tbaa !13
  store i64 %1, ptr %6, align 8, !tbaa !58
  store i32 %2, ptr %7, align 4, !tbaa !11
  store ptr %3, ptr %8, align 8, !tbaa !13
  call void @llvm.lifetime.start.p0(i64 4, ptr %9) #9
  call void @llvm.lifetime.start.p0(i64 4, ptr %10) #9
  store i32 0, ptr %10, align 4, !tbaa !11
  br label %14

14:                                               ; preds = %70, %4
  %15 = load i32, ptr %10, align 4, !tbaa !11
  %16 = load i32, ptr %7, align 4, !tbaa !11
  %17 = icmp slt i32 %15, %16
  br i1 %17, label %18, label %73

18:                                               ; preds = %14
  call void @llvm.lifetime.start.p0(i64 8, ptr %11) #9
  store double 1.000000e+00, ptr %11, align 8, !tbaa !20
  call void @llvm.lifetime.start.p0(i64 8, ptr %12) #9
  store double 1.000000e+00, ptr %12, align 8, !tbaa !20
  %19 = load i32, ptr %10, align 4, !tbaa !11
  store i32 %19, ptr %9, align 4, !tbaa !11
  br label %20

20:                                               ; preds = %55, %18
  %21 = load i32, ptr %9, align 4, !tbaa !11
  %22 = sext i32 %21 to i64
  %23 = load i64, ptr %6, align 8, !tbaa !58
  %24 = icmp slt i64 %22, %23
  br i1 %24, label %25, label %58

25:                                               ; preds = %20
  %26 = load ptr, ptr %5, align 8, !tbaa !13
  %27 = load i32, ptr %9, align 4, !tbaa !11
  %28 = sext i32 %27 to i64
  %29 = getelementptr inbounds double, ptr %26, i64 %28
  %30 = load double, ptr %29, align 8, !tbaa !20
  %31 = load ptr, ptr %5, align 8, !tbaa !13
  %32 = load i32, ptr %9, align 4, !tbaa !11
  %33 = load i32, ptr %10, align 4, !tbaa !11
  %34 = sub nsw i32 %32, %33
  %35 = sext i32 %34 to i64
  %36 = getelementptr inbounds double, ptr %31, i64 %35
  %37 = load double, ptr %36, align 8, !tbaa !20
  %38 = load double, ptr %11, align 8, !tbaa !20
  %39 = call nsz double @llvm.fmuladd.f64(double %30, double %37, double %38)
  store double %39, ptr %11, align 8, !tbaa !20
  %40 = load ptr, ptr %5, align 8, !tbaa !13
  %41 = load i32, ptr %9, align 4, !tbaa !11
  %42 = sext i32 %41 to i64
  %43 = getelementptr inbounds double, ptr %40, i64 %42
  %44 = load double, ptr %43, align 8, !tbaa !20
  %45 = load ptr, ptr %5, align 8, !tbaa !13
  %46 = load i32, ptr %9, align 4, !tbaa !11
  %47 = load i32, ptr %10, align 4, !tbaa !11
  %48 = sub nsw i32 %46, %47
  %49 = sub nsw i32 %48, 1
  %50 = sext i32 %49 to i64
  %51 = getelementptr inbounds double, ptr %45, i64 %50
  %52 = load double, ptr %51, align 8, !tbaa !20
  %53 = load double, ptr %12, align 8, !tbaa !20
  %54 = call nsz double @llvm.fmuladd.f64(double %44, double %52, double %53)
  store double %54, ptr %12, align 8, !tbaa !20
  br label %55

55:                                               ; preds = %25
  %56 = load i32, ptr %9, align 4, !tbaa !11
  %57 = add nsw i32 %56, 1
  store i32 %57, ptr %9, align 4, !tbaa !11
  br label %20, !llvm.loop !62

58:                                               ; preds = %20
  %59 = load double, ptr %11, align 8, !tbaa !20
  %60 = load ptr, ptr %8, align 8, !tbaa !13
  %61 = load i32, ptr %10, align 4, !tbaa !11
  %62 = sext i32 %61 to i64
  %63 = getelementptr inbounds double, ptr %60, i64 %62
  store double %59, ptr %63, align 8, !tbaa !20
  %64 = load double, ptr %12, align 8, !tbaa !20
  %65 = load ptr, ptr %8, align 8, !tbaa !13
  %66 = load i32, ptr %10, align 4, !tbaa !11
  %67 = add nsw i32 %66, 1
  %68 = sext i32 %67 to i64
  %69 = getelementptr inbounds double, ptr %65, i64 %68
  store double %64, ptr %69, align 8, !tbaa !20
  call void @llvm.lifetime.end.p0(i64 8, ptr %12) #9
  call void @llvm.lifetime.end.p0(i64 8, ptr %11) #9
  br label %70

70:                                               ; preds = %58
  %71 = load i32, ptr %10, align 4, !tbaa !11
  %72 = add nsw i32 %71, 2
  store i32 %72, ptr %10, align 4, !tbaa !11
  br label %14, !llvm.loop !63

73:                                               ; preds = %14
  %74 = load i32, ptr %10, align 4, !tbaa !11
  %75 = load i32, ptr %7, align 4, !tbaa !11
  %76 = icmp eq i32 %74, %75
  br i1 %76, label %77, label %109

77:                                               ; preds = %73
  call void @llvm.lifetime.start.p0(i64 8, ptr %13) #9
  store double 1.000000e+00, ptr %13, align 8, !tbaa !20
  %78 = load i32, ptr %10, align 4, !tbaa !11
  %79 = sub nsw i32 %78, 1
  store i32 %79, ptr %9, align 4, !tbaa !11
  br label %80

80:                                               ; preds = %100, %77
  %81 = load i32, ptr %9, align 4, !tbaa !11
  %82 = sext i32 %81 to i64
  %83 = load i64, ptr %6, align 8, !tbaa !58
  %84 = icmp slt i64 %82, %83
  br i1 %84, label %85, label %103

85:                                               ; preds = %80
  %86 = load ptr, ptr %5, align 8, !tbaa !13
  %87 = load i32, ptr %9, align 4, !tbaa !11
  %88 = sext i32 %87 to i64
  %89 = getelementptr inbounds double, ptr %86, i64 %88
  %90 = load double, ptr %89, align 8, !tbaa !20
  %91 = load ptr, ptr %5, align 8, !tbaa !13
  %92 = load i32, ptr %9, align 4, !tbaa !11
  %93 = load i32, ptr %10, align 4, !tbaa !11
  %94 = sub nsw i32 %92, %93
  %95 = sext i32 %94 to i64
  %96 = getelementptr inbounds double, ptr %91, i64 %95
  %97 = load double, ptr %96, align 8, !tbaa !20
  %98 = load double, ptr %13, align 8, !tbaa !20
  %99 = call nsz double @llvm.fmuladd.f64(double %90, double %97, double %98)
  store double %99, ptr %13, align 8, !tbaa !20
  br label %100

100:                                              ; preds = %85
  %101 = load i32, ptr %9, align 4, !tbaa !11
  %102 = add nsw i32 %101, 1
  store i32 %102, ptr %9, align 4, !tbaa !11
  br label %80, !llvm.loop !64

103:                                              ; preds = %80
  %104 = load double, ptr %13, align 8, !tbaa !20
  %105 = load ptr, ptr %8, align 8, !tbaa !13
  %106 = load i32, ptr %10, align 4, !tbaa !11
  %107 = sext i32 %106 to i64
  %108 = getelementptr inbounds double, ptr %105, i64 %107
  store double %104, ptr %108, align 8, !tbaa !20
  call void @llvm.lifetime.end.p0(i64 8, ptr %13) #9
  br label %109

109:                                              ; preds = %103, %73
  call void @llvm.lifetime.end.p0(i64 4, ptr %10) #9
  call void @llvm.lifetime.end.p0(i64 4, ptr %9) #9
  ret void
}