; Function Attrs: nofree norecurse nosync nounwind memory(argmem: readwrite) uwtable
define internal void @lpc_compute_autocorr_c(ptr noundef readonly captures(none) %0, i64 noundef %1, i32 noundef %2, ptr noundef writeonly captures(none) %3) #7 {
  %5 = icmp sgt i32 %2, 0
  br i1 %5, label %.preheader.preheader, label %._crit_edge51

.preheader.preheader:                             ; preds = %4
  %6 = zext nneg i32 %2 to i64
  br label %.preheader

.preheader:                                       ; preds = %.preheader.preheader, %._crit_edge
  %indvars.iv = phi i64 [ 0, %.preheader.preheader ], [ %indvars.iv.next, %._crit_edge ]
  %7 = icmp sgt i64 %1, %indvars.iv
  br i1 %7, label %.lr.ph, label %._crit_edge

.lr.ph:                                           ; preds = %.preheader, %.lr.ph
  %indvars.iv62 = phi i64 [ %indvars.iv.next63, %.lr.ph ], [ %indvars.iv, %.preheader ]
  %.03948 = phi double [ %16, %.lr.ph ], [ 1.000000e+00, %.preheader ]
  %.04047 = phi double [ %13, %.lr.ph ], [ 1.000000e+00, %.preheader ]
  %8 = getelementptr inbounds nuw double, ptr %0, i64 %indvars.iv62
  %9 = load double, ptr %8, align 8, !tbaa !14
  %10 = sub nuw nsw i64 %indvars.iv62, %indvars.iv
  %11 = getelementptr inbounds nuw double, ptr %0, i64 %10
  %12 = load double, ptr %11, align 8, !tbaa !14
  %13 = tail call nsz double @llvm.fmuladd.f64(double %9, double %12, double %.04047)
  %14 = getelementptr i8, ptr %11, i64 -8
  %15 = load double, ptr %14, align 8, !tbaa !14
  %16 = tail call nsz double @llvm.fmuladd.f64(double %9, double %15, double %.03948)
  %indvars.iv.next63 = add nuw nsw i64 %indvars.iv62, 1
  %exitcond.not = icmp eq i64 %indvars.iv.next63, %1
  br i1 %exitcond.not, label %._crit_edge, label %.lr.ph, !llvm.loop !50

._crit_edge:                                      ; preds = %.lr.ph, %.preheader
  %.040.lcssa = phi double [ 1.000000e+00, %.preheader ], [ %13, %.lr.ph ]
  %.039.lcssa = phi double [ 1.000000e+00, %.preheader ], [ %16, %.lr.ph ]
  %17 = getelementptr inbounds nuw double, ptr %3, i64 %indvars.iv
  store double %.040.lcssa, ptr %17, align 8, !tbaa !14
  %18 = getelementptr inbounds nuw i8, ptr %17, i64 8
  store double %.039.lcssa, ptr %18, align 8, !tbaa !14
  %indvars.iv.next = add nuw nsw i64 %indvars.iv, 2
  %19 = icmp samesign ult i64 %indvars.iv.next, %6
  br i1 %19, label %.preheader, label %._crit_edge51.loopexit, !llvm.loop !51

._crit_edge51.loopexit:                           ; preds = %._crit_edge
  %20 = trunc nuw nsw i64 %indvars.iv.next to i32
  br label %._crit_edge51

._crit_edge51:                                    ; preds = %._crit_edge51.loopexit, %4
  %.041.lcssa = phi i32 [ 0, %4 ], [ %20, %._crit_edge51.loopexit ]
  %21 = icmp eq i32 %.041.lcssa, %2
  br i1 %21, label %22, label %35

22:                                               ; preds = %._crit_edge51
  %23 = add nsw i32 %2, -1
  %24 = sext i32 %23 to i64
  %25 = icmp sgt i64 %1, %24
  br i1 %25, label %.lr.ph56.preheader, label %._crit_edge57

.lr.ph56.preheader:                               ; preds = %22
  %26 = sext i32 %2 to i64
  br label %.lr.ph56

.lr.ph56:                                         ; preds = %.lr.ph56.preheader, %.lr.ph56
  %indvars.iv66 = phi i64 [ %24, %.lr.ph56.preheader ], [ %indvars.iv.next67, %.lr.ph56 ]
  %.054 = phi double [ 1.000000e+00, %.lr.ph56.preheader ], [ %32, %.lr.ph56 ]
  %27 = getelementptr inbounds double, ptr %0, i64 %indvars.iv66
  %28 = load double, ptr %27, align 8, !tbaa !14
  %29 = sub nsw i64 %indvars.iv66, %26
  %30 = getelementptr inbounds double, ptr %0, i64 %29
  %31 = load double, ptr %30, align 8, !tbaa !14
  %32 = tail call nsz double @llvm.fmuladd.f64(double %28, double %31, double %.054)
  %indvars.iv.next67 = add nsw i64 %indvars.iv66, 1
  %exitcond69.not = icmp eq i64 %indvars.iv.next67, %1
  br i1 %exitcond69.not, label %._crit_edge57, label %.lr.ph56, !llvm.loop !52

._crit_edge57:                                    ; preds = %.lr.ph56, %22
  %.0.lcssa = phi double [ 1.000000e+00, %22 ], [ %32, %.lr.ph56 ]
  %33 = zext nneg i32 %2 to i64
  %34 = getelementptr inbounds nuw double, ptr %3, i64 %33
  store double %.0.lcssa, ptr %34, align 8, !tbaa !14
  br label %35

35:                                               ; preds = %._crit_edge57, %._crit_edge51
  ret void
}